Archive member included because of file (symbol)

c:/software/electronica/arm/eclipsearm/sourcery-g++-lite-arm-2011.03/bin/../lib/gcc/arm-none-eabi/4.5.2\libgcc.a(_divsi3.o)
                              ./commonEclipse/44blib.o (__aeabi_idiv)
c:/software/electronica/arm/eclipsearm/sourcery-g++-lite-arm-2011.03/bin/../lib/gcc/arm-none-eabi/4.5.2\libgcc.a(_dvmd_tls.o)
                              c:/software/electronica/arm/eclipsearm/sourcery-g++-lite-arm-2011.03/bin/../lib/gcc/arm-none-eabi/4.5.2\libgcc.a(_divsi3.o) (__aeabi_idiv0)

Allocating common symbols
Common symbol       size              file

led_state           0x4               ./src/led.o
fileSize            0x4               ./commonEclipse/44blib.o
downPt              0x4               ./commonEclipse/44blib.o

Memory Configuration

Name             Origin             Length             Attributes
*default*        0x00000000         0xffffffff

Linker script and memory map

LOAD ./src/button.o
LOAD ./src/init.o
LOAD ./src/led.o
LOAD ./src/main.o
LOAD ./commonEclipse/44binit.o
LOAD ./commonEclipse/44blib.o
START GROUP
LOAD c:/software/electronica/arm/eclipsearm/sourcery-g++-lite-arm-2011.03/bin/../lib/gcc/arm-none-eabi/4.5.2\libgcc.a
LOAD c:/software/electronica/arm/eclipsearm/sourcery-g++-lite-arm-2011.03/bin/../lib/gcc/arm-none-eabi/4.5.2/../../../../arm-none-eabi/lib\libc.a
END GROUP
                0x0c000000                . = 0xc000000
                0x0c000000                Image_RO_Base = .

.text           0x0c000000     0x10fc
 *(.text)
 .text          0x0c000000      0x150 ./src/button.o
                0x0c000000                Eint4567_init
                0x0c0000e8                Eint4567_ISR
 .text          0x0c000150       0x1c ./src/init.o
                0x0c000150                start
 .text          0x0c00016c      0x230 ./src/led.o
                0x0c00016c                leds_on
                0x0c00018c                leds_off
                0x0c0001ac                led1_on
                0x0c0001ec                led1_off
                0x0c00022c                led2_on
                0x0c00026c                led2_off
                0x0c0002ac                leds_switch
                0x0c0002ec                Led_Display
 .text          0x0c00039c       0xac ./src/main.o
                0x0c00039c                Main
                0x0c0003bc                button_init
                0x0c0003fc                button_no_pressed
 .text          0x0c000448      0x70c ./commonEclipse/44binit.o
 .text          0x0c000b54      0x45c ./commonEclipse/44blib.o
                0x0c000b54                Delay
                0x0c000c8c                DelayMs
                0x0c000cf0                Port_Init
                0x0c000e80                malloc
                0x0c000f20                free
                0x0c000f50                sys_init
 .text          0x0c000fb0      0x148 c:/software/electronica/arm/eclipsearm/sourcery-g++-lite-arm-2011.03/bin/../lib/gcc/arm-none-eabi/4.5.2\libgcc.a(_divsi3.o)
                0x0c000fb0                __divsi3
                0x0c000fb0                __aeabi_idiv
                0x0c0010d8                __aeabi_idivmod
 .text          0x0c0010f8        0x4 c:/software/electronica/arm/eclipsearm/sourcery-g++-lite-arm-2011.03/bin/../lib/gcc/arm-none-eabi/4.5.2\libgcc.a(_dvmd_tls.o)
                0x0c0010f8                __aeabi_idiv0
                0x0c0010f8                __aeabi_ldiv0
                0x0c0010fc                Image_RO_Limit = .
                0x0c0010fc                Image_RW_Base = .

.glue_7         0x0c0010fc        0x0
 .glue_7        0x00000000        0x0 linker stubs

.glue_7t        0x0c0010fc        0x0
 .glue_7t       0x00000000        0x0 linker stubs

.vfp11_veneer   0x0c0010fc        0x0
 .vfp11_veneer  0x00000000        0x0 linker stubs

.v4_bx          0x0c0010fc        0x0
 .v4_bx         0x00000000        0x0 linker stubs

.data           0x0c0010fc       0x14
 *(.data)
 .data          0x0c0010fc        0x0 ./src/button.o
 .data          0x0c0010fc        0x0 ./src/init.o
 .data          0x0c0010fc        0x0 ./src/led.o
 .data          0x0c0010fc        0x0 ./src/main.o
 .data          0x0c0010fc        0x6 ./commonEclipse/44binit.o
                0x0c0010fc                BDRAMTYPE
 *fill*         0x0c001102        0x2 00
 .data          0x0c001104        0xc ./commonEclipse/44blib.o
                0x0c001104                mallocPt
                0x0c001108                run
 .data          0x0c001110        0x0 c:/software/electronica/arm/eclipsearm/sourcery-g++-lite-arm-2011.03/bin/../lib/gcc/arm-none-eabi/4.5.2\libgcc.a(_divsi3.o)
 .data          0x0c001110        0x0 c:/software/electronica/arm/eclipsearm/sourcery-g++-lite-arm-2011.03/bin/../lib/gcc/arm-none-eabi/4.5.2\libgcc.a(_dvmd_tls.o)

.rodata
 *(.rodata)
                0x0c001110                Image_RW_Limit = .
                0x0c001110                Image_ZI_Base = .

.bss            0x0c001110       0x14
 *(.bss)
 .bss           0x0c001110        0x4 ./src/button.o
                0x0c001110                symbol
 .bss           0x0c001114        0x0 ./src/init.o
 .bss           0x0c001114        0x0 ./src/led.o
 .bss           0x0c001114        0x0 ./src/main.o
 .bss           0x0c001114        0x0 ./commonEclipse/44binit.o
 .bss           0x0c001114        0x4 ./commonEclipse/44blib.o
                0x0c001114                restart
 .bss           0x0c001118        0x0 c:/software/electronica/arm/eclipsearm/sourcery-g++-lite-arm-2011.03/bin/../lib/gcc/arm-none-eabi/4.5.2\libgcc.a(_divsi3.o)
 .bss           0x0c001118        0x0 c:/software/electronica/arm/eclipsearm/sourcery-g++-lite-arm-2011.03/bin/../lib/gcc/arm-none-eabi/4.5.2\libgcc.a(_dvmd_tls.o)
 COMMON         0x0c001118        0x4 ./src/led.o
                0x0c001118                led_state
 COMMON         0x0c00111c        0x8 ./commonEclipse/44blib.o
                0x0c00111c                fileSize
                0x0c001120                downPt
                0x0c001124                Image_ZI_Limit = .
                0x0c001124                __bss_start__ = .
                0x0c001124                __bss_end__ = .
                0x0c001124                __EH_FRAME_BEGIN__ = .
                0x0c001124                __EH_FRAME_END__ = .
                0x0c001124                PROVIDE (__stack, .)
                0x0c001124                end = .
                0x0c001124                _end = .

.comment        0x00000000       0x2a
 .comment       0x00000000       0x2a ./src/button.o
                                 0x2b (size before relaxing)
 .comment       0x00000000       0x2b ./src/led.o
 .comment       0x00000000       0x2b ./src/main.o
 .comment       0x00000000       0x2b ./commonEclipse/44blib.o

.ARM.attributes
                0x00000000       0x30
 .ARM.attributes
                0x00000000       0x32 ./src/button.o
 .ARM.attributes
                0x00000032       0x22 ./src/init.o
 .ARM.attributes
                0x00000054       0x32 ./src/led.o
 .ARM.attributes
                0x00000086       0x32 ./src/main.o
 .ARM.attributes
                0x000000b8       0x22 ./commonEclipse/44binit.o
 .ARM.attributes
                0x000000da       0x32 ./commonEclipse/44blib.o
 .ARM.attributes
                0x0000010c       0x1a c:/software/electronica/arm/eclipsearm/sourcery-g++-lite-arm-2011.03/bin/../lib/gcc/arm-none-eabi/4.5.2\libgcc.a(_divsi3.o)
 .ARM.attributes
                0x00000126       0x18 c:/software/electronica/arm/eclipsearm/sourcery-g++-lite-arm-2011.03/bin/../lib/gcc/arm-none-eabi/4.5.2\libgcc.a(_dvmd_tls.o)

.debug_info     0x00000000      0x539
 *(.debug_info)
 .debug_info    0x00000000       0x7e ./src/button.o
 .debug_info    0x0000007e       0x5e ./src/init.o
 .debug_info    0x000000dc      0x104 ./src/led.o
 .debug_info    0x000001e0       0xc5 ./src/main.o
 .debug_info    0x000002a5       0x6b ./commonEclipse/44binit.o
 .debug_info    0x00000310      0x229 ./commonEclipse/44blib.o

.debug_line     0x00000000      0xa08
 *(.debug_line)
 .debug_line    0x00000000       0xaa ./src/button.o
 .debug_line    0x000000aa       0x41 ./src/init.o
 .debug_line    0x000000eb       0xac ./src/led.o
 .debug_line    0x00000197      0x382 ./src/main.o
 .debug_line    0x00000519      0x116 ./commonEclipse/44binit.o
 .debug_line    0x0000062f      0x3d9 ./commonEclipse/44blib.o

.debug_abbrev   0x00000000      0x2a8
 *(.debug_abbrev)
 .debug_abbrev  0x00000000       0x6d ./src/button.o
 .debug_abbrev  0x0000006d       0x14 ./src/init.o
 .debug_abbrev  0x00000081       0x7c ./src/led.o
 .debug_abbrev  0x000000fd       0x78 ./src/main.o
 .debug_abbrev  0x00000175       0x14 ./commonEclipse/44binit.o
 .debug_abbrev  0x00000189      0x11f ./commonEclipse/44blib.o

.debug_frame    0x00000000      0x2cc
 *(.debug_frame)
 .debug_frame   0x00000000       0x5c ./src/button.o
 .debug_frame   0x0000005c      0x110 ./src/led.o
 .debug_frame   0x0000016c       0x70 ./src/main.o
 .debug_frame   0x000001dc       0xd0 ./commonEclipse/44blib.o
 .debug_frame   0x000002ac       0x20 c:/software/electronica/arm/eclipsearm/sourcery-g++-lite-arm-2011.03/bin/../lib/gcc/arm-none-eabi/4.5.2\libgcc.a(_divsi3.o)
OUTPUT(pr1.elf elf32-littlearm)

.debug_macinfo  0x00000000    0x1a21f
 .debug_macinfo
                0x00000000     0x5227 ./src/button.o
 .debug_macinfo
                0x00005227     0x50a3 ./src/led.o
 .debug_macinfo
                0x0000a2ca     0x7c5a ./src/main.o
 .debug_macinfo
                0x00011f24     0x82fb ./commonEclipse/44blib.o

.debug_loc      0x00000000      0x344
 .debug_loc     0x00000000       0x58 ./src/button.o
 .debug_loc     0x00000058      0x160 ./src/led.o
 .debug_loc     0x000001b8       0x84 ./src/main.o
 .debug_loc     0x0000023c      0x108 ./commonEclipse/44blib.o

.debug_pubnames
                0x00000000      0x19c
 .debug_pubnames
                0x00000000       0x40 ./src/button.o
 .debug_pubnames
                0x00000040       0x8b ./src/led.o
 .debug_pubnames
                0x000000cb       0x41 ./src/main.o
 .debug_pubnames
                0x0000010c       0x90 ./commonEclipse/44blib.o

.debug_aranges  0x00000000       0xc0
 .debug_aranges
                0x00000000       0x20 ./src/button.o
 .debug_aranges
                0x00000020       0x20 ./src/init.o
 .debug_aranges
                0x00000040       0x20 ./src/led.o
 .debug_aranges
                0x00000060       0x20 ./src/main.o
 .debug_aranges
                0x00000080       0x20 ./commonEclipse/44binit.o
 .debug_aranges
                0x000000a0       0x20 ./commonEclipse/44blib.o

.debug_str      0x00000000      0x1f4
 .debug_str     0x00000000       0x63 ./src/button.o
 .debug_str     0x00000063       0x6c ./src/led.o
                                 0x9d (size before relaxing)
 .debug_str     0x000000cf       0x81 ./src/main.o
                                 0xeb (size before relaxing)
 .debug_str     0x00000150       0xa4 ./commonEclipse/44blib.o
                                0x163 (size before relaxing)

.debug_pubtypes
                0x00000000       0x24
 .debug_pubtypes
                0x00000000       0x12 ./src/main.o
 .debug_pubtypes
                0x00000012       0x12 ./commonEclipse/44blib.o
