   1              		.cpu arm7tdmi
   2              		.fpu softvfp
   3              		.eabi_attribute 20, 1
   4              		.eabi_attribute 21, 1
   5              		.eabi_attribute 23, 3
   6              		.eabi_attribute 24, 1
   7              		.eabi_attribute 25, 1
   8              		.eabi_attribute 26, 1
   9              		.eabi_attribute 30, 6
  10              		.eabi_attribute 18, 4
  11              		.file	"button.c"
  21              	.Ltext0:
  22              		.file 1 "../button.c"
 1951              		.align	2
 1952              		.global	Eint4567_init
 1954              	Eint4567_init:
 1955              	.LFB0:
   1:../button.c   **** #include "44blib.h"
   2:../button.c   **** #include "44b.h"
   3:../button.c   **** #include "def.h"
   4:../button.c   **** 
   5:../button.c   **** void Eint4567_ISR(void) __attribute__ ((interrupt ("IRQ")));
   6:../button.c   **** void Eint4567_init(void);
   7:../button.c   **** extern int button_no_pressed();
   8:../button.c   **** 
   9:../button.c   **** 
  10:../button.c   **** void Eint4567_init(void) {
 1956              		.loc 1 10 0
 1957              		.cfi_startproc
 1958              		@ Function supports interworking.
 1959              		@ args = 0, pretend = 0, frame = 0
 1960              		@ frame_needed = 1, uses_anonymous_args = 0
 1961 0000 0DC0A0E1 		mov	ip, sp
 1962              	.LCFI0:
 1963              		.cfi_def_cfa_register 12
 1964 0004 00D82DE9 		stmfd	sp!, {fp, ip, lr, pc}
 1965 0008 04B04CE2 		sub	fp, ip, #4
 1966              		.cfi_offset 14, -8
 1967              		.cfi_offset 13, -12
 1968              		.cfi_offset 11, -16
 1969              	.LCFI1:
 1970              		.cfi_def_cfa 11, 4
  11:../button.c   **** 	/* Configuracion del controlador de interrupciones */
  12:../button.c   **** 		//Borrar interrupciones pendientes.
  13:../button.c   **** 		rI_ISPC = BIT_EINT4567;
 1971              		.loc 1 13 0
 1972 000c 74309FE5 		ldr	r3, .L2
 1973 0010 0226A0E3 		mov	r2, #2097152
 1974 0014 002083E5 		str	r2, [r3, #0]
  14:../button.c   **** 		rEXTINTPND = 0xf;
 1975              		.loc 1 14 0
 1976 0018 6C309FE5 		ldr	r3, .L2+4
 1977 001c 0F20A0E3 		mov	r2, #15
 1978 0020 002083E5 		str	r2, [r3, #0]
  15:../button.c   **** 
  16:../button.c   **** 		// Establecer la rutina de servicio para Eint4567
  17:../button.c   **** 	    pISR_EINT4567 = (unsigned)Eint4567_ISR;
 1979              		.loc 1 17 0
 1980 0024 64309FE5 		ldr	r3, .L2+8
 1981 0028 64209FE5 		ldr	r2, .L2+12
 1982 002c 002083E5 		str	r2, [r3, #0]
  18:../button.c   **** 
  19:../button.c   **** 	/* Configuracion del puerto G */
  20:../button.c   **** 		// Establece la funcion de los pines (EINT7-EINT0)
  21:../button.c   **** 		rPCONG = rPCONG | (0xF000);
 1983              		.loc 1 21 0
 1984 0030 60309FE5 		ldr	r3, .L2+16
 1985 0034 5C209FE5 		ldr	r2, .L2+16
 1986 0038 002092E5 		ldr	r2, [r2, #0]
 1987 003c 0F2A82E3 		orr	r2, r2, #61440
 1988 0040 002083E5 		str	r2, [r3, #0]
  22:../button.c   **** 
  23:../button.c   **** 		//Habilita las resistencias de pull-up
  24:../button.c   **** 		rPUPG = 0x0;
 1989              		.loc 1 24 0
 1990 0044 50309FE5 		ldr	r3, .L2+20
 1991 0048 0020A0E3 		mov	r2, #0
 1992 004c 002083E5 		str	r2, [r3, #0]
  25:../button.c   **** 
  26:../button.c   **** 		// Configura las lineas de int. como de flanco de bajada mediante EXTINT
  27:../button.c   **** 		rEXTINT = rEXTINT | 0x33000000;
 1993              		.loc 1 27 0
 1994 0050 48309FE5 		ldr	r3, .L2+24
 1995 0054 44209FE5 		ldr	r2, .L2+24
 1996 0058 002092E5 		ldr	r2, [r2, #0]
 1997 005c 332482E3 		orr	r2, r2, #855638016
 1998 0060 002083E5 		str	r2, [r3, #0]
  28:../button.c   **** 
  29:../button.c   **** 	/* Por precaucion, se vuelven a borrar los bits de INTPND y EXTINTPND */
  30:../button.c   **** 	    rEXTINTPND = 0xf;
 1999              		.loc 1 30 0
 2000 0064 20309FE5 		ldr	r3, .L2+4
 2001 0068 0F20A0E3 		mov	r2, #15
 2002 006c 002083E5 		str	r2, [r3, #0]
  31:../button.c   **** 	    rI_ISPC = BIT_EINT4567;
 2003              		.loc 1 31 0
 2004 0070 10309FE5 		ldr	r3, .L2
 2005 0074 0226A0E3 		mov	r2, #2097152
 2006 0078 002083E5 		str	r2, [r3, #0]
  32:../button.c   **** }
 2007              		.loc 1 32 0
 2008 007c 0CD04BE2 		sub	sp, fp, #12
 2009 0080 00689DE8 		ldmfd	sp, {fp, sp, lr}
 2010 0084 1EFF2FE1 		bx	lr
 2011              	.L3:
 2012              		.align	2
 2013              	.L2:
 2014 0088 2400E001 		.word	31457316
 2015 008c 5400D201 		.word	30539860
 2016 0090 74FF7F0C 		.word	209715060
 2017 0094 00000000 		.word	Eint4567_ISR
 2018 0098 4000D201 		.word	30539840
 2019 009c 4800D201 		.word	30539848
 2020 00a0 5000D201 		.word	30539856
 2021              		.cfi_endproc
 2022              	.LFE0:
 2024              		.align	2
 2025              		.global	Eint4567_ISR
 2027              	Eint4567_ISR:
 2028              	.LFB1:
  33:../button.c   **** 
  34:../button.c   **** 
  35:../button.c   **** void Eint4567_ISR(void)
  36:../button.c   **** {
 2029              		.loc 1 36 0
 2030              		.cfi_startproc
 2031              		@ Interrupt Service Routine.
 2032              		@ args = 0, pretend = 0, frame = 0
 2033              		@ frame_needed = 1, uses_anonymous_args = 0
 2034 00a4 04C02DE5 		str	ip, [sp, #-4]!
 2035 00a8 0DC0A0E1 		mov	ip, sp
 2036              	.LCFI2:
 2037              		.cfi_def_cfa_register 12
 2038 00ac 0FD82DE9 		stmfd	sp!, {r0, r1, r2, r3, fp, ip, lr, pc}
 2039 00b0 04B04CE2 		sub	fp, ip, #4
 2040              		.cfi_offset 14, -8
 2041              		.cfi_offset 13, -12
 2042              		.cfi_offset 11, -16
 2043              		.cfi_offset 3, -20
 2044              		.cfi_offset 2, -24
 2045              		.cfi_offset 1, -28
 2046              		.cfi_offset 0, -32
 2047              	.LCFI3:
 2048              		.cfi_def_cfa 11, 4
  37:../button.c   **** 	while(button_no_pressed() != 0);
 2049              		.loc 1 37 0
 2050 00b4 0000A0E1 		mov	r0, r0	@ nop
 2051              	.L5:
 2052              		.loc 1 37 0 is_stmt 0 discriminator 1
 2053 00b8 FEFFFFEB 		bl	button_no_pressed
 2054 00bc 0030A0E1 		mov	r3, r0
 2055 00c0 000053E3 		cmp	r3, #0
 2056 00c4 FBFFFF1A 		bne	.L5
  38:../button.c   **** 
  39:../button.c   **** 	//Conmutamos LEDs
  40:../button.c   **** 	leds_switch();
 2057              		.loc 1 40 0 is_stmt 1
 2058 00c8 FEFFFFEB 		bl	leds_switch
  41:../button.c   **** 
  42:../button.c   **** 	//Delay para eliminar rebotes
  43:../button.c   **** 	DelayMs(100);
 2059              		.loc 1 43 0
 2060 00cc 6400A0E3 		mov	r0, #100
 2061 00d0 FEFFFFEB 		bl	DelayMs
  44:../button.c   **** 
  45:../button.c   **** 	/*Atendemos interrupciones*/
  46:../button.c   **** 	//Borramos EXTINTPND ambas líneas EINT7 y EINT6
  47:../button.c   **** 	rEXTINTPND = 0xf; //((1<<2) | (1<<3));
 2062              		.loc 1 47 0
 2063 00d4 20309FE5 		ldr	r3, .L6
 2064 00d8 0F20A0E3 		mov	r2, #15
 2065 00dc 002083E5 		str	r2, [r3, #0]
  48:../button.c   **** 
  49:../button.c   **** 	//Borramos INTPND usando ISPC
  50:../button.c   **** 	rI_ISPC = BIT_EINT4567;
 2066              		.loc 1 50 0
 2067 00e0 18309FE5 		ldr	r3, .L6+4
 2068 00e4 0226A0E3 		mov	r2, #2097152
 2069 00e8 002083E5 		str	r2, [r3, #0]
  51:../button.c   **** }
 2070              		.loc 1 51 0
 2071 00ec 1CD04BE2 		sub	sp, fp, #28
 2072 00f0 0F689DE8 		ldmfd	sp, {r0, r1, r2, r3, fp, sp, lr}
 2073 00f4 04C09DE4 		ldmfd	sp!, {ip}
 2074 00f8 04F05EE2 		subs	pc, lr, #4
 2075              	.L7:
 2076              		.align	2
 2077              	.L6:
 2078 00fc 5400D201 		.word	30539860
 2079 0100 2400E001 		.word	31457316
 2080              		.cfi_endproc
 2081              	.LFE1:
 2083              		.align	2
 2084              		.global	Eint4567_activar
 2086              	Eint4567_activar:
 2087              	.LFB2:
  52:../button.c   **** 
  53:../button.c   **** 
  54:../button.c   **** void Eint4567_activar(void){
 2088              		.loc 1 54 0
 2089              		.cfi_startproc
 2090              		@ Function supports interworking.
 2091              		@ args = 0, pretend = 0, frame = 0
 2092              		@ frame_needed = 1, uses_anonymous_args = 0
 2093 0104 0DC0A0E1 		mov	ip, sp
 2094              	.LCFI4:
 2095              		.cfi_def_cfa_register 12
 2096 0108 00D82DE9 		stmfd	sp!, {fp, ip, lr, pc}
 2097 010c 04B04CE2 		sub	fp, ip, #4
 2098              		.cfi_offset 14, -8
 2099              		.cfi_offset 13, -12
 2100              		.cfi_offset 11, -16
 2101              	.LCFI5:
 2102              		.cfi_def_cfa 11, 4
  55:../button.c   **** 	//borrar interrupciones pendientes
  56:../button.c   **** 	rEXTINTPND = 0xf;
 2103              		.loc 1 56 0
 2104 0110 48309FE5 		ldr	r3, .L9
 2105 0114 0F20A0E3 		mov	r2, #15
 2106 0118 002083E5 		str	r2, [r3, #0]
  57:../button.c   **** 	rI_ISPC = BIT_EINT4567;
 2107              		.loc 1 57 0
 2108 011c 40309FE5 		ldr	r3, .L9+4
 2109 0120 0226A0E3 		mov	r2, #2097152
 2110 0124 002083E5 		str	r2, [r3, #0]
  58:../button.c   **** 
  59:../button.c   **** 	//enmascarar la linea de interrupcion
  60:../button.c   **** 	rINTMSK = rINTMSK & ~( BIT_EINT4567 );
 2111              		.loc 1 60 0
 2112 0128 38309FE5 		ldr	r3, .L9+8
 2113 012c 34209FE5 		ldr	r2, .L9+8
 2114 0130 002092E5 		ldr	r2, [r2, #0]
 2115 0134 0226C2E3 		bic	r2, r2, #2097152
 2116 0138 002083E5 		str	r2, [r3, #0]
  61:../button.c   **** 
  62:../button.c   **** 	//borrar interrupciones pendientes
  63:../button.c   **** 	rEXTINTPND = 0xf;
 2117              		.loc 1 63 0
 2118 013c 1C309FE5 		ldr	r3, .L9
 2119 0140 0F20A0E3 		mov	r2, #15
 2120 0144 002083E5 		str	r2, [r3, #0]
  64:../button.c   **** 	rI_ISPC = BIT_EINT4567;
 2121              		.loc 1 64 0
 2122 0148 14309FE5 		ldr	r3, .L9+4
 2123 014c 0226A0E3 		mov	r2, #2097152
 2124 0150 002083E5 		str	r2, [r3, #0]
  65:../button.c   **** }
 2125              		.loc 1 65 0
 2126 0154 0CD04BE2 		sub	sp, fp, #12
 2127 0158 00689DE8 		ldmfd	sp, {fp, sp, lr}
 2128 015c 1EFF2FE1 		bx	lr
 2129              	.L10:
 2130              		.align	2
 2131              	.L9:
 2132 0160 5400D201 		.word	30539860
 2133 0164 2400E001 		.word	31457316
 2134 0168 0C00E001 		.word	31457292
 2135              		.cfi_endproc
 2136              	.LFE2:
 2138              		.align	2
 2139              		.global	Eint4567_desactivar
 2141              	Eint4567_desactivar:
 2142              	.LFB3:
  66:../button.c   **** 
  67:../button.c   **** 
  68:../button.c   **** void Eint4567_desactivar(void){
 2143              		.loc 1 68 0
 2144              		.cfi_startproc
 2145              		@ Function supports interworking.
 2146              		@ args = 0, pretend = 0, frame = 0
 2147              		@ frame_needed = 1, uses_anonymous_args = 0
 2148 016c 0DC0A0E1 		mov	ip, sp
 2149              	.LCFI6:
 2150              		.cfi_def_cfa_register 12
 2151 0170 00D82DE9 		stmfd	sp!, {fp, ip, lr, pc}
 2152 0174 04B04CE2 		sub	fp, ip, #4
 2153              		.cfi_offset 14, -8
 2154              		.cfi_offset 13, -12
 2155              		.cfi_offset 11, -16
 2156              	.LCFI7:
 2157              		.cfi_def_cfa 11, 4
  69:../button.c   **** 	//desenmarcarar la linea de interrupcion
  70:../button.c   **** 	rINTMSK = rINTMSK | BIT_EINT4567;
 2158              		.loc 1 70 0
 2159 0178 30309FE5 		ldr	r3, .L12
 2160 017c 2C209FE5 		ldr	r2, .L12
 2161 0180 002092E5 		ldr	r2, [r2, #0]
 2162 0184 022682E3 		orr	r2, r2, #2097152
 2163 0188 002083E5 		str	r2, [r3, #0]
  71:../button.c   **** 
  72:../button.c   **** 	//borrar interrupciones pendientes
  73:../button.c   **** 	rEXTINTPND = 0xf;
 2164              		.loc 1 73 0
 2165 018c 20309FE5 		ldr	r3, .L12+4
 2166 0190 0F20A0E3 		mov	r2, #15
 2167 0194 002083E5 		str	r2, [r3, #0]
  74:../button.c   **** 	rI_ISPC = BIT_EINT4567;
 2168              		.loc 1 74 0
 2169 0198 18309FE5 		ldr	r3, .L12+8
 2170 019c 0226A0E3 		mov	r2, #2097152
 2171 01a0 002083E5 		str	r2, [r3, #0]
  75:../button.c   **** }
 2172              		.loc 1 75 0
 2173 01a4 0CD04BE2 		sub	sp, fp, #12
 2174 01a8 00689DE8 		ldmfd	sp, {fp, sp, lr}
 2175 01ac 1EFF2FE1 		bx	lr
 2176              	.L13:
 2177              		.align	2
 2178              	.L12:
 2179 01b0 0C00E001 		.word	31457292
 2180 01b4 5400D201 		.word	30539860
 2181 01b8 2400E001 		.word	31457316
 2182              		.cfi_endproc
 2183              	.LFE3:
 2185              		.align	2
 2186              		.global	button_no_pressed
 2188              	button_no_pressed:
 2189              	.LFB4:
  76:../button.c   **** 
  77:../button.c   **** 
  78:../button.c   **** int button_no_pressed(){
 2190              		.loc 1 78 0
 2191              		.cfi_startproc
 2192              		@ Function supports interworking.
 2193              		@ args = 0, pretend = 0, frame = 8
 2194              		@ frame_needed = 1, uses_anonymous_args = 0
 2195 01bc 0DC0A0E1 		mov	ip, sp
 2196              	.LCFI8:
 2197              		.cfi_def_cfa_register 12
 2198 01c0 00D82DE9 		stmfd	sp!, {fp, ip, lr, pc}
 2199 01c4 04B04CE2 		sub	fp, ip, #4
 2200              		.cfi_offset 14, -8
 2201              		.cfi_offset 13, -12
 2202              		.cfi_offset 11, -16
 2203              	.LCFI9:
 2204              		.cfi_def_cfa 11, 4
 2205 01c8 08D04DE2 		sub	sp, sp, #8
  79:../button.c   **** 	UINT r = ~ ( rPDATG | ~ 0xC0 );
 2206              		.loc 1 79 0
 2207 01cc 30309FE5 		ldr	r3, .L15
 2208 01d0 003093E5 		ldr	r3, [r3, #0]
 2209 01d4 0330E0E1 		mvn	r3, r3
 2210 01d8 C03003E2 		and	r3, r3, #192
 2211 01dc 0330E0E1 		mvn	r3, r3
 2212 01e0 0330E0E1 		mvn	r3, r3
 2213 01e4 10300BE5 		str	r3, [fp, #-16]
  80:../button.c   **** 	DelayMs(100);
 2214              		.loc 1 80 0
 2215 01e8 6400A0E3 		mov	r0, #100
 2216 01ec FEFFFFEB 		bl	DelayMs
  81:../button.c   **** 	return r;
 2217              		.loc 1 81 0
 2218 01f0 10301BE5 		ldr	r3, [fp, #-16]
  82:../button.c   **** }
 2219              		.loc 1 82 0
 2220 01f4 0300A0E1 		mov	r0, r3
 2221 01f8 0CD04BE2 		sub	sp, fp, #12
 2222 01fc 00689DE8 		ldmfd	sp, {fp, sp, lr}
 2223 0200 1EFF2FE1 		bx	lr
 2224              	.L16:
 2225              		.align	2
 2226              	.L15:
 2227 0204 4400D201 		.word	30539844
 2228              		.cfi_endproc
 2229              	.LFE4:
 2231              	.Letext0: