   1              		.cpu arm7tdmi
   2              		.fpu softvfp
   3              		.eabi_attribute 20, 1
   4              		.eabi_attribute 21, 1
   5              		.eabi_attribute 23, 3
   6              		.eabi_attribute 24, 1
   7              		.eabi_attribute 25, 1
   8              		.eabi_attribute 26, 1
   9              		.eabi_attribute 30, 6
  10              		.eabi_attribute 18, 4
  11              		.file	"main.c"
  21              	.Ltext0:
  22              		.file 1 "../main.c"
 2874              		.align	2
 2875              		.global	Main
 2877              	Main:
 2878              	.LFB0:
   1:../main.c     **** /*--- ficheros de cabecera ---*/
   2:../main.c     **** #include "44blib.h"
   3:../main.c     **** #include "44b.h"
   4:../main.c     **** #include "stdio.h"
   5:../main.c     **** 
   6:../main.c     **** 
   7:../main.c     **** /*--- funciones externas ---*/
   8:../main.c     **** //TODO
   9:../main.c     **** 
  10:../main.c     **** /*--- declaracion de funciones ---*/
  11:../main.c     **** void Main(void);
  12:../main.c     **** void game_init(void);
  13:../main.c     **** 
  14:../main.c     **** /*--- Variables globales del juego ---*/
  15:../main.c     **** int st; //Estado actual del juego.
  16:../main.c     **** int luz; //1 = izq, 2 = dcha
  17:../main.c     **** int cuenta;
  18:../main.c     **** 
  19:../main.c     **** void Main(void)
  20:../main.c     **** {
 2879              		.loc 1 20 0
 2880              		.cfi_startproc
 2881              		@ Function supports interworking.
 2882              		@ args = 0, pretend = 0, frame = 0
 2883              		@ frame_needed = 1, uses_anonymous_args = 0
 2884 0000 0DC0A0E1 		mov	ip, sp
 2885              	.LCFI0:
 2886              		.cfi_def_cfa_register 12
 2887 0004 00D82DE9 		stmfd	sp!, {fp, ip, lr, pc}
 2888 0008 04B04CE2 		sub	fp, ip, #4
 2889              		.cfi_offset 14, -8
 2890              		.cfi_offset 13, -12
 2891              		.cfi_offset 11, -16
 2892              	.LCFI1:
 2893              		.cfi_def_cfa 11, 4
  21:../main.c     **** 	/* Inicializacion */
  22:../main.c     **** 	sys_init();
 2894              		.loc 1 22 0
 2895 000c FEFFFFEB 		bl	sys_init
  23:../main.c     **** 	game_init();
 2896              		.loc 1 23 0
 2897 0010 FEFFFFEB 		bl	game_init
  24:../main.c     **** 
  25:../main.c     **** 	//Inicio de la ejecucion
  26:../main.c     **** 	st = 1;
 2898              		.loc 1 26 0
 2899 0014 0C309FE5 		ldr	r3, .L3
 2900 0018 0120A0E3 		mov	r2, #1
 2901 001c 002083E5 		str	r2, [r3, #0]
  27:../main.c     **** 	timer4_activar();
 2902              		.loc 1 27 0
 2903 0020 FEFFFFEB 		bl	timer4_activar
 2904              	.L2:
  28:../main.c     **** 
  29:../main.c     **** 	while (1){};
 2905              		.loc 1 29 0 discriminator 1
 2906 0024 FEFFFFEA 		b	.L2
 2907              	.L4:
 2908              		.align	2
 2909              	.L3:
 2910 0028 00000000 		.word	st
 2911              		.cfi_endproc
 2912              	.LFE0:
 2914              		.align	2
 2915              		.global	game_init
 2917              	game_init:
 2918              	.LFB1:
  30:../main.c     **** }
  31:../main.c     **** 
  32:../main.c     **** 
  33:../main.c     **** 
  34:../main.c     **** void game_init(void){
 2919              		.loc 1 34 0
 2920              		.cfi_startproc
 2921              		@ Function supports interworking.
 2922              		@ args = 0, pretend = 0, frame = 0
 2923              		@ frame_needed = 1, uses_anonymous_args = 0
 2924 002c 0DC0A0E1 		mov	ip, sp
 2925              	.LCFI2:
 2926              		.cfi_def_cfa_register 12
 2927 0030 00D82DE9 		stmfd	sp!, {fp, ip, lr, pc}
 2928 0034 04B04CE2 		sub	fp, ip, #4
 2929              		.cfi_offset 14, -8
 2930              		.cfi_offset 13, -12
 2931              		.cfi_offset 11, -16
 2932              	.LCFI3:
 2933              		.cfi_def_cfa 11, 4
  35:../main.c     **** 	rI_ISPC = 0x3ffffff; //borrar interrupciones pendientes
 2934              		.loc 1 35 0
 2935 0038 5C309FE5 		ldr	r3, .L6
 2936 003c 3F23E0E3 		mvn	r2, #-67108864
 2937 0040 002083E5 		str	r2, [r3, #0]
  36:../main.c     **** 
  37:../main.c     **** 	// Configura las lineas como de tipo IRQ mediante INTMOD
  38:../main.c     **** 	rINTMOD = 0x0;
 2938              		.loc 1 38 0
 2939 0044 54309FE5 		ldr	r3, .L6+4
 2940 0048 0020A0E3 		mov	r2, #0
 2941 004c 002083E5 		str	r2, [r3, #0]
  39:../main.c     **** 	// Habilita int. vectorizadas y la linea IRQ (FIQ no) mediante INTCON
  40:../main.c     **** 	rINTCON = 0x1;
 2942              		.loc 1 40 0
 2943 0050 1E36A0E3 		mov	r3, #31457280
 2944 0054 0120A0E3 		mov	r2, #1
 2945 0058 002083E5 		str	r2, [r3, #0]
  41:../main.c     **** 
  42:../main.c     **** 	// Enmascara todas las lineas excepto Eint4567 y el bit global (INTMSK)
  43:../main.c     **** 	rINTMSK = ~( BIT_GLOBAL );
 2946              		.loc 1 43 0
 2947 005c 40309FE5 		ldr	r3, .L6+8
 2948 0060 0123E0E3 		mvn	r2, #67108864
 2949 0064 002083E5 		str	r2, [r3, #0]
  44:../main.c     **** 
  45:../main.c     **** 	//Iniciamos los distintos componentes
  46:../main.c     **** 	Eint4567_init();
 2950              		.loc 1 46 0
 2951 0068 FEFFFFEB 		bl	Eint4567_init
  47:../main.c     **** 	keyboard_init();
 2952              		.loc 1 47 0
 2953 006c FEFFFFEB 		bl	keyboard_init
  48:../main.c     **** 
  49:../main.c     **** 	//Inicializamos los timers
  50:../main.c     **** 	timer1_init();
 2954              		.loc 1 50 0
 2955 0070 FEFFFFEB 		bl	timer1_init
  51:../main.c     **** 	timer23_init();
 2956              		.loc 1 51 0
 2957 0074 FEFFFFEB 		bl	timer23_init
  52:../main.c     **** 	timer4_init();
 2958              		.loc 1 52 0
 2959 0078 FEFFFFEB 		bl	timer4_init
  53:../main.c     **** 
  54:../main.c     **** 
  55:../main.c     **** 	//Apagamos todos los leds y 8 segmentos
  56:../main.c     **** 	leds_off();
 2960              		.loc 1 56 0
 2961 007c FEFFFFEB 		bl	leds_off
  57:../main.c     **** 	D8Led_init();
 2962              		.loc 1 57 0
 2963 0080 FEFFFFEB 		bl	D8Led_init
  58:../main.c     **** 
  59:../main.c     **** 	/* Por precaucion, se vuelven a borrar los bits de INTPND y EXTINTPND */
  60:../main.c     **** 	rI_ISPC = 0x3ffffff;
 2964              		.loc 1 60 0
 2965 0084 10309FE5 		ldr	r3, .L6
 2966 0088 3F23E0E3 		mvn	r2, #-67108864
 2967 008c 002083E5 		str	r2, [r3, #0]
  61:../main.c     **** }
 2968              		.loc 1 61 0
 2969 0090 0CD04BE2 		sub	sp, fp, #12
 2970 0094 00689DE8 		ldmfd	sp, {fp, sp, lr}
 2971 0098 1EFF2FE1 		bx	lr
 2972              	.L7:
 2973              		.align	2
 2974              	.L6:
 2975 009c 2400E001 		.word	31457316
 2976 00a0 0800E001 		.word	31457288
 2977 00a4 0C00E001 		.word	31457292
 2978              		.cfi_endproc
 2979              	.LFE1:
 2981              	.Letext0: